target datalayout = "e-m:e-p270:32:32-p271:32:32-p272:64:64-i64:64-i128:128-f80:128-n8:16:32:64-S128"
target triple = "x86_64-pc-linux-gnu"

%struct._GtkDarktableGradientSlider = type { %struct._GtkDrawingArea, ptr, i32, i32, i32, [10 x double], [10 x double], [10 x i32], double, double, [3 x double], i32, i32, i32, i32, i32, i32, i32, i32, i32, ptr }
%struct._GtkDrawingArea = type { %struct._GtkWidget, ptr }
%struct._GtkWidget = type { %struct._GObject, ptr }
%struct._GObject = type { %struct._GTypeInstance, i32, ptr }
%struct._GTypeInstance = type { ptr }
%struct._GTypeClass = type { i64 }
%struct._cairo_rectangle_int = type { i32, i32, i32, i32 }
%struct._GdkEventMotion = type { i32, ptr, i8, i32, double, double, ptr, i32, i16, ptr, double, double }

@_gradient_slider_get_type.static_g_define_type_id = internal global i64 0, align 8
@.str.9 = private unnamed_addr constant [33 x i8] c"DTGTK_IS_GRADIENT_SLIDER(widget)\00", align 1
@__func__._gradient_slider_motion_notify = private unnamed_addr constant [31 x i8] c"_gradient_slider_motion_notify\00", align 1

; Function Attrs: nounwind uwtable
define i64 @_gradient_slider_get_type() #0 {
  %1 = alloca i32, align 4
  %2 = alloca i64, align 8
  %3 = alloca ptr, align 8
  %4 = alloca i64, align 8
  %5 = alloca i64, align 8
  call void @llvm.lifetime.start.p0(i64 8, ptr %2) #11
  call void @llvm.lifetime.start.p0(i64 8, ptr %3) #11
  store ptr @_gradient_slider_get_type.static_g_define_type_id, ptr %3, align 8, !tbaa !6
  %6 = load ptr, ptr %3, align 8, !tbaa !6
  %7 = load atomic i64, ptr %6 seq_cst, align 8
  store i64 %7, ptr %2, align 8
  %8 = load i64, ptr %2, align 8, !tbaa !11
  store i64 %8, ptr %4, align 8, !tbaa !11
  call void @llvm.lifetime.end.p0(i64 8, ptr %3) #11
  call void @llvm.lifetime.end.p0(i64 8, ptr %2) #11
  %9 = load i64, ptr %4, align 8, !tbaa !11
  %10 = icmp ne i64 %9, 0
  br i1 %10, label %14, label %11

11:                                               ; preds = %0
  %12 = call i32 @g_once_init_enter(ptr noundef @_gradient_slider_get_type.static_g_define_type_id)
  %13 = icmp ne i32 %12, 0
  br label %14

14:                                               ; preds = %11, %0
  %15 = phi i1 [ false, %0 ], [ %13, %11 ]
  %16 = zext i1 %15 to i32
  store i32 %16, ptr %1, align 4, !tbaa !13
  %17 = load i32, ptr %1, align 4, !tbaa !13
  %18 = icmp ne i32 %17, 0
  br i1 %18, label %19, label %22

19:                                               ; preds = %14
  call void @llvm.lifetime.start.p0(i64 8, ptr %5) #11
  %20 = call i64 @_gradient_slider_get_type_once()
  store i64 %20, ptr %5, align 8, !tbaa !11
  %21 = load i64, ptr %5, align 8, !tbaa !11
  call void @g_once_init_leave(ptr noundef @_gradient_slider_get_type.static_g_define_type_id, i64 noundef %21)
  call void @llvm.lifetime.end.p0(i64 8, ptr %5) #11
  br label %22

22:                                               ; preds = %19, %14
  %23 = load i64, ptr @_gradient_slider_get_type.static_g_define_type_id, align 8, !tbaa !11
  ret i64 %23
}

; Function Attrs: nounwind uwtable
define i64 @dtgtk_gradient_slider_get_type() #0 {
  %1 = call i64 @_gradient_slider_get_type()
  ret i64 %1
}

; Function Attrs: nounwind uwtable
define internal i32 @_get_active_marker_from_screen(ptr noundef %0, double noundef %1, double noundef %2) #0 {
  %4 = alloca ptr, align 8
  %5 = alloca double, align 8
  %6 = alloca double, align 8
  %7 = alloca %struct._cairo_rectangle_int, align 4
  %8 = alloca i32, align 4
  %9 = alloca i32, align 4
  store ptr %0, ptr %4, align 8, !tbaa !54
  store double %1, ptr %5, align 8, !tbaa !45
  store double %2, ptr %6, align 8, !tbaa !45
  call void @llvm.lifetime.start.p0(i64 16, ptr %7) #11
  %10 = load ptr, ptr %4, align 8, !tbaa !54
  call void @gtk_widget_get_allocation(ptr noundef %10, ptr noundef %7)
  call void @llvm.lifetime.start.p0(i64 4, ptr %8) #11
  %11 = load double, ptr %6, align 8, !tbaa !45
  %12 = getelementptr inbounds nuw %struct._cairo_rectangle_int, ptr %7, i32 0, i32 3
  %13 = load i32, ptr %12, align 4, !tbaa !134
  %14 = sitofp i32 %13 to float
  %15 = fdiv reassoc nsz arcp contract afn float %14, 2.000000e+00
  %16 = fpext reassoc nsz arcp contract afn float %15 to double
  %17 = fcmp reassoc nsz arcp contract afn ole double %11, %16
  %18 = zext i1 %17 to i32
  store i32 %18, ptr %8, align 4, !tbaa !13
  call void @llvm.lifetime.start.p0(i64 4, ptr %9) #11
  %19 = load ptr, ptr %4, align 8, !tbaa !54
  %20 = load double, ptr %5, align 8, !tbaa !45
  %21 = load i32, ptr %8, align 4, !tbaa !13
  %22 = call i32 @_get_active_marker_internal(ptr noundef %19, double noundef %20, i32 noundef %21)
  store i32 %22, ptr %9, align 4, !tbaa !13
  %23 = load i32, ptr %9, align 4, !tbaa !13
  %24 = icmp slt i32 %23, 0
  br i1 %24, label %25, label %33

25:                                               ; preds = %3
  %26 = load ptr, ptr %4, align 8, !tbaa !54
  %27 = load double, ptr %5, align 8, !tbaa !45
  %28 = load i32, ptr %8, align 4, !tbaa !13
  %29 = icmp ne i32 %28, 0
  %30 = xor i1 %29, true
  %31 = zext i1 %30 to i32
  %32 = call i32 @_get_active_marker_internal(ptr noundef %26, double noundef %27, i32 noundef %31)
  store i32 %32, ptr %9, align 4, !tbaa !13
  br label %33

33:                                               ; preds = %25, %3
  %34 = load i32, ptr %9, align 4, !tbaa !13
  call void @llvm.lifetime.end.p0(i64 4, ptr %9) #11
  call void @llvm.lifetime.end.p0(i64 4, ptr %8) #11
  call void @llvm.lifetime.end.p0(i64 16, ptr %7) #11
  ret i32 %34
}

; Function Attrs: inlinehint nounwind uwtable
define internal ptr @DTGTK_GRADIENT_SLIDER(ptr noundef %0) #8 {
  %2 = alloca ptr, align 8
  store ptr %0, ptr %2, align 8, !tbaa !15
  %3 = load ptr, ptr %2, align 8, !tbaa !15
  %4 = call i64 @dtgtk_gradient_slider_get_type()
  %5 = call ptr @g_type_check_instance_cast(ptr noundef %3, i64 noundef %4)
  ret ptr %5
}

; Function Attrs: inlinehint nounwind uwtable
define internal i32 @DTGTK_IS_GRADIENT_SLIDER(ptr noundef %0) #8 {
  %2 = alloca ptr, align 8
  %3 = alloca ptr, align 8
  %4 = alloca i64, align 8
  %5 = alloca i32, align 4
  %6 = alloca i32, align 4
  store ptr %0, ptr %2, align 8, !tbaa !15
  call void @llvm.lifetime.start.p0(i64 8, ptr %3) #11
  %7 = load ptr, ptr %2, align 8, !tbaa !15
  store ptr %7, ptr %3, align 8, !tbaa !205
  call void @llvm.lifetime.start.p0(i64 8, ptr %4) #11
  %8 = call i64 @dtgtk_gradient_slider_get_type()
  store i64 %8, ptr %4, align 8, !tbaa !11
  call void @llvm.lifetime.start.p0(i64 4, ptr %5) #11
  %9 = load ptr, ptr %3, align 8, !tbaa !205
  %10 = icmp ne ptr %9, null
  br i1 %10, label %12, label %11

11:                                               ; preds = %1
  store i32 0, ptr %5, align 4, !tbaa !13
  br label %31

12:                                               ; preds = %1
  %13 = load ptr, ptr %3, align 8, !tbaa !205
  %14 = getelementptr inbounds nuw %struct._GTypeInstance, ptr %13, i32 0, i32 0
  %15 = load ptr, ptr %14, align 8, !tbaa !207
  %16 = icmp ne ptr %15, null
  br i1 %16, label %17, label %26

17:                                               ; preds = %12
  %18 = load ptr, ptr %3, align 8, !tbaa !205
  %19 = getelementptr inbounds nuw %struct._GTypeInstance, ptr %18, i32 0, i32 0
  %20 = load ptr, ptr %19, align 8, !tbaa !207
  %21 = getelementptr inbounds nuw %struct._GTypeClass, ptr %20, i32 0, i32 0
  %22 = load i64, ptr %21, align 8, !tbaa !121
  %23 = load i64, ptr %4, align 8, !tbaa !11
  %24 = icmp eq i64 %22, %23
  br i1 %24, label %25, label %26

25:                                               ; preds = %17
  store i32 1, ptr %5, align 4, !tbaa !13
  br label %30

26:                                               ; preds = %17, %12
  %27 = load ptr, ptr %3, align 8, !tbaa !205
  %28 = load i64, ptr %4, align 8, !tbaa !11
  %29 = call i32 @g_type_check_instance_is_a(ptr noundef %27, i64 noundef %28) #14
  store i32 %29, ptr %5, align 4, !tbaa !13
  br label %30

30:                                               ; preds = %26, %25
  br label %31

31:                                               ; preds = %30, %11
  %32 = load i32, ptr %5, align 4, !tbaa !13
  store i32 %32, ptr %6, align 4, !tbaa !13
  call void @llvm.lifetime.end.p0(i64 4, ptr %5) #11
  call void @llvm.lifetime.end.p0(i64 8, ptr %4) #11
  call void @llvm.lifetime.end.p0(i64 8, ptr %3) #11
  %33 = load i32, ptr %6, align 4, !tbaa !13
  ret i32 %33
}

; Function Attrs: nounwind uwtable
define internal i32 @_gradient_slider_motion_notify(ptr noundef %0, ptr noundef %1) #0 {
  %3 = alloca i32, align 4
  %4 = alloca ptr, align 8
  %5 = alloca ptr, align 8
  %6 = alloca i32, align 4
  %7 = alloca i32, align 4
  %8 = alloca ptr, align 8
  %9 = alloca double, align 8
  %10 = alloca i32, align 4
  store ptr %0, ptr %4, align 8, !tbaa !54
  store ptr %1, ptr %5, align 8, !tbaa !191
  br label %11

11:                                               ; preds = %2
  call void @llvm.lifetime.start.p0(i64 4, ptr %6) #11
  %12 = load ptr, ptr %4, align 8, !tbaa !54
  %13 = call i32 @DTGTK_IS_GRADIENT_SLIDER(ptr noundef %12)
  %14 = icmp ne i32 %13, 0
  br i1 %14, label %15, label %16

15:                                               ; preds = %11
  store i32 1, ptr %6, align 4, !tbaa !13
  br label %17

16:                                               ; preds = %11
  store i32 0, ptr %6, align 4, !tbaa !13
  br label %17

17:                                               ; preds = %16, %15
  %18 = load i32, ptr %6, align 4, !tbaa !13
  store i32 %18, ptr %7, align 4, !tbaa !13
  call void @llvm.lifetime.end.p0(i64 4, ptr %6) #11
  %19 = load i32, ptr %7, align 4, !tbaa !13
  %20 = sext i32 %19 to i64
  %21 = call i64 @llvm.expect.i64(i64 %20, i64 1)
  %22 = icmp ne i64 %21, 0
  br i1 %22, label %23, label %24

23:                                               ; preds = %17
  br label %25

24:                                               ; preds = %17
  call void @g_return_if_fail_warning(ptr noundef null, ptr noundef @__func__._gradient_slider_motion_notify, ptr noundef @.str.9)
  store i32 0, ptr %3, align 4
  br label %89

25:                                               ; preds = %23
  br label %26

26:                                               ; preds = %25
  call void @llvm.lifetime.start.p0(i64 8, ptr %8) #11
  %27 = load ptr, ptr %4, align 8, !tbaa !54
  %28 = call ptr @DTGTK_GRADIENT_SLIDER(ptr noundef %27)
  store ptr %28, ptr %8, align 8, !tbaa !24
  %29 = load ptr, ptr %8, align 8, !tbaa !24
  %30 = getelementptr inbounds nuw %struct._GtkDarktableGradientSlider, ptr %29, i32 0, i32 13
  %31 = load i32, ptr %30, align 8, !tbaa !39
  %32 = icmp eq i32 %31, 1
  br i1 %32, label %33, label %70

33:                                               ; preds = %26
  %34 = load ptr, ptr %8, align 8, !tbaa !24
  %35 = getelementptr inbounds nuw %struct._GtkDarktableGradientSlider, ptr %34, i32 0, i32 2
  %36 = load i32, ptr %35, align 8, !tbaa !41
  %37 = icmp ne i32 %36, -1
  br i1 %37, label %38, label %70

38:                                               ; preds = %33
  %39 = load ptr, ptr %8, align 8, !tbaa !24
  %40 = getelementptr inbounds nuw %struct._GtkDarktableGradientSlider, ptr %39, i32 0, i32 16
  %41 = load i32, ptr %40, align 4, !tbaa !37
  %42 = icmp eq i32 %41, 0
  br i1 %42, label %43, label %70

43:                                               ; preds = %38
  call void @llvm.lifetime.start.p0(i64 8, ptr %9) #11
  %44 = load ptr, ptr %4, align 8, !tbaa !54
  %45 = load ptr, ptr %5, align 8, !tbaa !191
  %46 = getelementptr inbounds nuw %struct._GdkEventMotion, ptr %45, i32 0, i32 4
  %47 = load double, ptr %46, align 8, !tbaa !193
  %48 = call reassoc nsz arcp contract afn double @_get_position_from_screen(ptr noundef %44, double noundef %47)
  store double %48, ptr %9, align 8, !tbaa !45
  call void @llvm.lifetime.start.p0(i64 4, ptr %10) #11
  %49 = load ptr, ptr %8, align 8, !tbaa !24
  %50 = getelementptr inbounds nuw %struct._GtkDarktableGradientSlider, ptr %49, i32 0, i32 5
  %51 = load ptr, ptr %8, align 8, !tbaa !24
  %52 = getelementptr inbounds nuw %struct._GtkDarktableGradientSlider, ptr %51, i32 0, i32 2
  %53 = load i32, ptr %52, align 8, !tbaa !41
  %54 = sext i32 %53 to i64
  %55 = getelementptr inbounds [10 x double], ptr %50, i64 0, i64 %54
  %56 = load double, ptr %55, align 8, !tbaa !45
  %57 = load double, ptr %9, align 8, !tbaa !45
  %58 = fcmp reassoc nsz arcp contract afn ole double %56, %57
  %59 = select i1 %58, i32 1, i32 0
  store i32 %59, ptr %10, align 4, !tbaa !13
  %60 = load ptr, ptr %4, align 8, !tbaa !54
  %61 = load ptr, ptr %8, align 8, !tbaa !24
  %62 = getelementptr inbounds nuw %struct._GtkDarktableGradientSlider, ptr %61, i32 0, i32 2
  %63 = load i32, ptr %62, align 8, !tbaa !41
  %64 = load double, ptr %9, align 8, !tbaa !45
  %65 = load i32, ptr %10, align 4, !tbaa !13
  %66 = call reassoc nsz arcp contract afn double @_slider_move(ptr noundef %60, i32 noundef %63, double noundef %64, i32 noundef %65)
  %67 = load ptr, ptr %8, align 8, !tbaa !24
  %68 = getelementptr inbounds nuw %struct._GtkDarktableGradientSlider, ptr %67, i32 0, i32 14
  store i32 1, ptr %68, align 4, !tbaa !38
  %69 = load ptr, ptr %4, align 8, !tbaa !54
  call void @gtk_widget_queue_draw(ptr noundef %69)
  call void @llvm.lifetime.end.p0(i64 4, ptr %10) #11
  call void @llvm.lifetime.end.p0(i64 8, ptr %9) #11
  br label %81

70:                                               ; preds = %38, %33, %26
  %71 = load ptr, ptr %4, align 8, !tbaa !54
  %72 = load ptr, ptr %5, align 8, !tbaa !191
  %73 = getelementptr inbounds nuw %struct._GdkEventMotion, ptr %72, i32 0, i32 4
  %74 = load double, ptr %73, align 8, !tbaa !193
  %75 = load ptr, ptr %5, align 8, !tbaa !191
  %76 = getelementptr inbounds nuw %struct._GdkEventMotion, ptr %75, i32 0, i32 5
  %77 = load double, ptr %76, align 8, !tbaa !195
  %78 = call i32 @_get_active_marker_from_screen(ptr noundef %71, double noundef %74, double noundef %77)
  %79 = load ptr, ptr %8, align 8, !tbaa !24
  %80 = getelementptr inbounds nuw %struct._GtkDarktableGradientSlider, ptr %79, i32 0, i32 3
  store i32 %78, ptr %80, align 4, !tbaa !42
  br label %81

81:                                               ; preds = %70, %43
  %82 = load ptr, ptr %8, align 8, !tbaa !24
  %83 = getelementptr inbounds nuw %struct._GtkDarktableGradientSlider, ptr %82, i32 0, i32 2
  %84 = load i32, ptr %83, align 8, !tbaa !41
  %85 = icmp ne i32 %84, -1
  br i1 %85, label %86, label %88

86:                                               ; preds = %81
  %87 = load ptr, ptr %4, align 8, !tbaa !54
  call void @gtk_widget_grab_focus(ptr noundef %87)
  br label %88

88:                                               ; preds = %86, %81
  store i32 1, ptr %3, align 4
  call void @llvm.lifetime.end.p0(i64 8, ptr %8) #11
  br label %89

89:                                               ; preds = %88, %24
  %90 = load i32, ptr %3, align 4
  ret i32 %90
}