; Function Attrs: nounwind uwtable
define internal range(i32 0, 2) i32 @_gradient_slider_motion_notify(ptr noundef %0, ptr noundef readonly captures(none) %1) #0 {
  %3 = alloca %struct._cairo_rectangle_int, align 4
  %4 = load atomic i64, ptr @_gradient_slider_get_type.static_g_define_type_id seq_cst, align 8
  %.not.i.i.i = icmp eq i64 %4, 0
  br i1 %.not.i.i.i, label %5, label %dtgtk_gradient_slider_get_type.exit.i

5:                                                ; preds = %2
  %6 = tail call i32 @g_once_init_enter(ptr noundef nonnull @_gradient_slider_get_type.static_g_define_type_id) #14
  %.not4.i.i.i = icmp eq i32 %6, 0
  br i1 %.not4.i.i.i, label %dtgtk_gradient_slider_get_type.exit.i, label %7

7:                                                ; preds = %5
  %8 = tail call fastcc i64 @_gradient_slider_get_type_once()
  tail call void @g_once_init_leave(ptr noundef nonnull @_gradient_slider_get_type.static_g_define_type_id, i64 noundef %8) #14
  br label %dtgtk_gradient_slider_get_type.exit.i

dtgtk_gradient_slider_get_type.exit.i:            ; preds = %7, %5, %2
  %9 = load i64, ptr @_gradient_slider_get_type.static_g_define_type_id, align 8, !tbaa !6
  %.not.i = icmp eq ptr %0, null
  br i1 %.not.i, label %DTGTK_IS_GRADIENT_SLIDER.exit.thread, label %10

10:                                               ; preds = %dtgtk_gradient_slider_get_type.exit.i
  %11 = load ptr, ptr %0, align 8, !tbaa !113
  %.not10.i = icmp eq ptr %11, null
  br i1 %.not10.i, label %DTGTK_IS_GRADIENT_SLIDER.exit, label %12

12:                                               ; preds = %10
  %13 = load i64, ptr %11, align 8, !tbaa !107
  %14 = icmp eq i64 %13, %9
  br i1 %14, label %DTGTK_IS_GRADIENT_SLIDER.exit.thread34, label %DTGTK_IS_GRADIENT_SLIDER.exit

DTGTK_IS_GRADIENT_SLIDER.exit:                    ; preds = %10, %12
  %15 = tail call i32 @g_type_check_instance_is_a(ptr noundef nonnull readonly %0, i64 noundef %9) #17
  %.not = icmp eq i32 %15, 0
  br i1 %.not, label %DTGTK_IS_GRADIENT_SLIDER.exit.thread, label %DTGTK_IS_GRADIENT_SLIDER.exit.thread34, !prof !114

DTGTK_IS_GRADIENT_SLIDER.exit.thread:             ; preds = %dtgtk_gradient_slider_get_type.exit.i, %DTGTK_IS_GRADIENT_SLIDER.exit
  tail call void @g_return_if_fail_warning(ptr noundef null, ptr noundef nonnull @__func__._gradient_slider_motion_notify, ptr noundef nonnull @.str.9) #14
  br label %69

DTGTK_IS_GRADIENT_SLIDER.exit.thread34:           ; preds = %12, %DTGTK_IS_GRADIENT_SLIDER.exit
  %16 = load atomic i64, ptr @_gradient_slider_get_type.static_g_define_type_id seq_cst, align 8
  %.not.i.i.i28 = icmp eq i64 %16, 0
  br i1 %.not.i.i.i28, label %17, label %DTGTK_GRADIENT_SLIDER.exit

17:                                               ; preds = %DTGTK_IS_GRADIENT_SLIDER.exit.thread34
  %18 = tail call i32 @g_once_init_enter(ptr noundef nonnull @_gradient_slider_get_type.static_g_define_type_id) #14
  %.not4.i.i.i30 = icmp eq i32 %18, 0
  br i1 %.not4.i.i.i30, label %DTGTK_GRADIENT_SLIDER.exit, label %19

19:                                               ; preds = %17
  %20 = tail call fastcc i64 @_gradient_slider_get_type_once()
  tail call void @g_once_init_leave(ptr noundef nonnull @_gradient_slider_get_type.static_g_define_type_id, i64 noundef %20) #14
  br label %DTGTK_GRADIENT_SLIDER.exit

DTGTK_GRADIENT_SLIDER.exit:                       ; preds = %DTGTK_IS_GRADIENT_SLIDER.exit.thread34, %17, %19
  %21 = load i64, ptr @_gradient_slider_get_type.static_g_define_type_id, align 8, !tbaa !6
  %22 = tail call ptr @g_type_check_instance_cast(ptr noundef nonnull %0, i64 noundef %21) #14
  %23 = getelementptr inbounds nuw i8, ptr %22, i64 312
  %24 = load i32, ptr %23, align 8, !tbaa !30
  %25 = icmp eq i32 %24, 1
  br i1 %25, label %26, label %46

26:                                               ; preds = %DTGTK_GRADIENT_SLIDER.exit
  %27 = getelementptr inbounds nuw i8, ptr %22, i64 48
  %28 = load i32, ptr %27, align 8, !tbaa !32
  %.not26 = icmp eq i32 %28, -1
  br i1 %.not26, label %46, label %29

29:                                               ; preds = %26
  %30 = getelementptr inbounds nuw i8, ptr %22, i64 324
  %31 = load i32, ptr %30, align 4, !tbaa !28
  %32 = icmp eq i32 %31, 0
  br i1 %32, label %33, label %46

33:                                               ; preds = %29
  %34 = getelementptr inbounds nuw i8, ptr %1, i64 24
  %35 = load double, ptr %34, align 8, !tbaa !172
  %36 = tail call reassoc nsz arcp contract afn fastcc double @_get_position_from_screen(ptr noundef nonnull %0, double noundef %35)
  %37 = getelementptr inbounds nuw i8, ptr %22, i64 64
  %38 = load i32, ptr %27, align 8, !tbaa !32
  %39 = sext i32 %38 to i64
  %40 = getelementptr inbounds [10 x double], ptr %37, i64 0, i64 %39
  %41 = load double, ptr %40, align 8, !tbaa !37
  %42 = fcmp reassoc nsz arcp contract afn ole double %41, %36
  %43 = zext i1 %42 to i32
  %44 = tail call reassoc nsz arcp contract afn fastcc double @_slider_move(ptr noundef nonnull %0, i32 noundef %38, double noundef %36, i32 noundef %43)
  %45 = getelementptr inbounds nuw i8, ptr %22, i64 316
  store i32 1, ptr %45, align 4, !tbaa !29
  tail call void @gtk_widget_queue_draw(ptr noundef nonnull %0) #14
  br label %65

46:                                               ; preds = %29, %26, %DTGTK_GRADIENT_SLIDER.exit
  %47 = getelementptr inbounds nuw i8, ptr %1, i64 24
  %48 = load double, ptr %47, align 8, !tbaa !172
  %49 = getelementptr inbounds nuw i8, ptr %1, i64 32
  %50 = load double, ptr %49, align 8, !tbaa !174
  call void @llvm.lifetime.start.p0(i64 16, ptr nonnull %3) #14
  call void @gtk_widget_get_allocation(ptr noundef nonnull %0, ptr noundef nonnull %3) #14
  %51 = getelementptr inbounds nuw i8, ptr %3, i64 12
  %52 = load i32, ptr %51, align 4, !tbaa !119
  %53 = sitofp i32 %52 to float
  %54 = fmul reassoc nsz arcp contract afn float %53, 5.000000e-01
  %55 = fpext reassoc nsz arcp contract afn float %54 to double
  %56 = fcmp reassoc nsz arcp contract afn ole double %50, %55
  %57 = zext i1 %56 to i32
  %58 = call fastcc i32 @_get_active_marker_internal(ptr noundef nonnull %0, double noundef %48, i32 noundef %57)
  %59 = icmp slt i32 %58, 0
  br i1 %59, label %60, label %_get_active_marker_from_screen.exit

60:                                               ; preds = %46
  %61 = xor i1 %56, true
  %62 = zext i1 %61 to i32
  %63 = call fastcc i32 @_get_active_marker_internal(ptr noundef nonnull %0, double noundef %48, i32 noundef %62)
  br label %_get_active_marker_from_screen.exit

_get_active_marker_from_screen.exit:              ; preds = %46, %60
  %.0.i31 = phi i32 [ %63, %60 ], [ %58, %46 ]
  call void @llvm.lifetime.end.p0(i64 16, ptr nonnull %3) #14
  %64 = getelementptr inbounds nuw i8, ptr %22, i64 52
  store i32 %.0.i31, ptr %64, align 4, !tbaa !33
  br label %65

65:                                               ; preds = %_get_active_marker_from_screen.exit, %33
  %66 = getelementptr inbounds nuw i8, ptr %22, i64 48
  %67 = load i32, ptr %66, align 8, !tbaa !32
  %.not27 = icmp eq i32 %67, -1
  br i1 %.not27, label %69, label %68

68:                                               ; preds = %65
  call void @gtk_widget_grab_focus(ptr noundef nonnull %0) #14
  br label %69

69:                                               ; preds = %65, %68, %DTGTK_IS_GRADIENT_SLIDER.exit.thread
  %.0 = phi i32 [ 0, %DTGTK_IS_GRADIENT_SLIDER.exit.thread ], [ 1, %68 ], [ 1, %65 ]
  ret i32 %.0
}